target datalayout = "e-m:e-p270:32:32-p271:32:32-p272:64:64-i64:64-i128:128-f80:128-n8:16:32:64-S128"
target triple = "x86_64-pc-linux-gnu"

%struct._lv_dropdown_t = type { %struct._lv_obj_t, ptr, ptr, ptr, ptr, i32, i32, i32, i32, i8 }
%struct._lv_obj_t = type { ptr, ptr, ptr, ptr, ptr, %struct.lv_area_t, i32, i16, i16 }
%struct.lv_area_t = type { i32, i32, i32, i32 }

; Function Attrs: nounwind uwtable
define void @lv_dropdown_get_selected_str(ptr noundef %0, ptr noundef %1, i32 noundef %2) #0 {
  %4 = alloca ptr, align 8
  %5 = alloca ptr, align 8
  %6 = alloca i32, align 4
  %7 = alloca ptr, align 8
  %8 = alloca i32, align 4
  %9 = alloca i32, align 4
  %10 = alloca i64, align 8
  %11 = alloca i32, align 4
  %12 = alloca i32, align 4
  store ptr %0, ptr %4, align 8, !tbaa !3
  store ptr %1, ptr %5, align 8, !tbaa !3
  store i32 %2, ptr %6, align 4, !tbaa !22
  br label %13

13:                                               ; preds = %3
  br label %14

14:                                               ; preds = %13
  call void @llvm.lifetime.start.p0(i64 8, ptr %7) #5
  %15 = load ptr, ptr %4, align 8, !tbaa !3
  store ptr %15, ptr %7, align 8, !tbaa !3
  call void @llvm.lifetime.start.p0(i64 4, ptr %8) #5
  call void @llvm.lifetime.start.p0(i64 4, ptr %9) #5
  store i32 0, ptr %9, align 4, !tbaa !22
  call void @llvm.lifetime.start.p0(i64 8, ptr %10) #5
  %16 = load ptr, ptr %7, align 8, !tbaa !3
  %17 = getelementptr inbounds nuw %struct._lv_dropdown_t, ptr %16, i32 0, i32 4
  %18 = load ptr, ptr %17, align 8, !tbaa !13
  %19 = icmp ne ptr %18, null
  br i1 %19, label %20, label %25

20:                                               ; preds = %14
  %21 = load ptr, ptr %7, align 8, !tbaa !3
  %22 = getelementptr inbounds nuw %struct._lv_dropdown_t, ptr %21, i32 0, i32 4
  %23 = load ptr, ptr %22, align 8, !tbaa !13
  %24 = call i64 @lv_strlen(ptr noundef %23)
  store i64 %24, ptr %10, align 8, !tbaa !32
  br label %28

25:                                               ; preds = %14
  %26 = load ptr, ptr %5, align 8, !tbaa !3
  %27 = getelementptr inbounds i8, ptr %26, i64 0
  store i8 0, ptr %27, align 1, !tbaa !29
  store i32 1, ptr %11, align 4
  br label %111

28:                                               ; preds = %20
  store i32 0, ptr %8, align 4, !tbaa !22
  br label %29

29:                                               ; preds = %56, %28
  %30 = load i32, ptr %8, align 4, !tbaa !22
  %31 = zext i32 %30 to i64
  %32 = load i64, ptr %10, align 8, !tbaa !32
  %33 = icmp ult i64 %31, %32
  br i1 %33, label %34, label %40

34:                                               ; preds = %29
  %35 = load i32, ptr %9, align 4, !tbaa !22
  %36 = load ptr, ptr %7, align 8, !tbaa !3
  %37 = getelementptr inbounds nuw %struct._lv_dropdown_t, ptr %36, i32 0, i32 7
  %38 = load i32, ptr %37, align 8, !tbaa !17
  %39 = icmp ne i32 %35, %38
  br label %40

40:                                               ; preds = %34, %29
  %41 = phi i1 [ false, %29 ], [ %39, %34 ]
  br i1 %41, label %42, label %59

42:                                               ; preds = %40
  %43 = load ptr, ptr %7, align 8, !tbaa !3
  %44 = getelementptr inbounds nuw %struct._lv_dropdown_t, ptr %43, i32 0, i32 4
  %45 = load ptr, ptr %44, align 8, !tbaa !13
  %46 = load i32, ptr %8, align 4, !tbaa !22
  %47 = zext i32 %46 to i64
  %48 = getelementptr inbounds nuw i8, ptr %45, i64 %47
  %49 = load i8, ptr %48, align 1, !tbaa !29
  %50 = sext i8 %49 to i32
  %51 = icmp eq i32 %50, 10
  br i1 %51, label %52, label %55

52:                                               ; preds = %42
  %53 = load i32, ptr %9, align 4, !tbaa !22
  %54 = add i32 %53, 1
  store i32 %54, ptr %9, align 4, !tbaa !22
  br label %55

55:                                               ; preds = %52, %42
  br label %56

56:                                               ; preds = %55
  %57 = load i32, ptr %8, align 4, !tbaa !22
  %58 = add i32 %57, 1
  store i32 %58, ptr %8, align 4, !tbaa !22
  br label %29, !llvm.loop !36

59:                                               ; preds = %40
  call void @llvm.lifetime.start.p0(i64 4, ptr %12) #5
  store i32 0, ptr %12, align 4, !tbaa !22
  br label %60

60:                                               ; preds = %101, %59
  %61 = load i32, ptr %8, align 4, !tbaa !22
  %62 = zext i32 %61 to i64
  %63 = load i64, ptr %10, align 8, !tbaa !32
  %64 = icmp ult i64 %62, %63
  br i1 %64, label %65, label %75

65:                                               ; preds = %60
  %66 = load ptr, ptr %7, align 8, !tbaa !3
  %67 = getelementptr inbounds nuw %struct._lv_dropdown_t, ptr %66, i32 0, i32 4
  %68 = load ptr, ptr %67, align 8, !tbaa !13
  %69 = load i32, ptr %8, align 4, !tbaa !22
  %70 = zext i32 %69 to i64
  %71 = getelementptr inbounds nuw i8, ptr %68, i64 %70
  %72 = load i8, ptr %71, align 1, !tbaa !29
  %73 = sext i8 %72 to i32
  %74 = icmp ne i32 %73, 10
  br label %75

75:                                               ; preds = %65, %60
  %76 = phi i1 [ false, %60 ], [ %74, %65 ]
  br i1 %76, label %77, label %106

77:                                               ; preds = %75
  %78 = load i32, ptr %6, align 4, !tbaa !22
  %79 = icmp ne i32 %78, 0
  br i1 %79, label %80, label %89

80:                                               ; preds = %77
  %81 = load i32, ptr %12, align 4, !tbaa !22
  %82 = load i32, ptr %6, align 4, !tbaa !22
  %83 = sub i32 %82, 1
  %84 = icmp uge i32 %81, %83
  br i1 %84, label %85, label %89

85:                                               ; preds = %80
  br label %86

86:                                               ; preds = %85
  br label %87

87:                                               ; preds = %86
  br label %88

88:                                               ; preds = %87
  br label %106

89:                                               ; preds = %80, %77
  %90 = load ptr, ptr %7, align 8, !tbaa !3
  %91 = getelementptr inbounds nuw %struct._lv_dropdown_t, ptr %90, i32 0, i32 4
  %92 = load ptr, ptr %91, align 8, !tbaa !13
  %93 = load i32, ptr %8, align 4, !tbaa !22
  %94 = zext i32 %93 to i64
  %95 = getelementptr inbounds nuw i8, ptr %92, i64 %94
  %96 = load i8, ptr %95, align 1, !tbaa !29
  %97 = load ptr, ptr %5, align 8, !tbaa !3
  %98 = load i32, ptr %12, align 4, !tbaa !22
  %99 = zext i32 %98 to i64
  %100 = getelementptr inbounds nuw i8, ptr %97, i64 %99
  store i8 %96, ptr %100, align 1, !tbaa !29
  br label %101

101:                                              ; preds = %89
  %102 = load i32, ptr %12, align 4, !tbaa !22
  %103 = add i32 %102, 1
  store i32 %103, ptr %12, align 4, !tbaa !22
  %104 = load i32, ptr %8, align 4, !tbaa !22
  %105 = add i32 %104, 1
  store i32 %105, ptr %8, align 4, !tbaa !22
  br label %60, !llvm.loop !37

106:                                              ; preds = %88, %75
  %107 = load ptr, ptr %5, align 8, !tbaa !3
  %108 = load i32, ptr %12, align 4, !tbaa !22
  %109 = zext i32 %108 to i64
  %110 = getelementptr inbounds nuw i8, ptr %107, i64 %109
  store i8 0, ptr %110, align 1, !tbaa !29
  call void @llvm.lifetime.end.p0(i64 4, ptr %12) #5
  store i32 0, ptr %11, align 4
  br label %111

111:                                              ; preds = %106, %25
  call void @llvm.lifetime.end.p0(i64 8, ptr %10) #5
  call void @llvm.lifetime.end.p0(i64 4, ptr %9) #5
  call void @llvm.lifetime.end.p0(i64 4, ptr %8) #5
  call void @llvm.lifetime.end.p0(i64 8, ptr %7) #5
  %112 = load i32, ptr %11, align 4
  switch i32 %112, label %114 [
    i32 0, label %113
    i32 1, label %113
  ]

113:                                              ; preds = %111, %111
  ret void

114:                                              ; preds = %111
  unreachable
}