; Function Attrs: nounwind uwtable
define void @lv_dropdown_get_selected_str(ptr nocapture noundef readonly %0, ptr nocapture noundef writeonly %1, i32 noundef %2) local_unnamed_addr #0 {
  %4 = getelementptr inbounds nuw i8, ptr %0, i64 88
  %5 = load ptr, ptr %4, align 8, !tbaa !12
  %.not = icmp eq ptr %5, null
  br i1 %.not, label %10, label %6

6:                                                ; preds = %3
  %7 = tail call i64 @lv_strlen(ptr noundef nonnull %5) #7
  %.not52 = icmp eq i64 %7, 0
  br i1 %.not52, label %.critedge, label %.lr.ph

.lr.ph:                                           ; preds = %6
  %8 = getelementptr inbounds nuw i8, ptr %0, i64 104
  %9 = load i32, ptr %8, align 8, !tbaa !16
  br label %11

10:                                               ; preds = %3
  store i8 0, ptr %1, align 1, !tbaa !19
  br label %48

11:                                               ; preds = %.lr.ph, %13
  %12 = phi i64 [ 0, %.lr.ph ], [ %20, %13 ]
  %.02840 = phi i32 [ 0, %.lr.ph ], [ %19, %13 ]
  %.02939 = phi i32 [ 0, %.lr.ph ], [ %spec.select, %13 ]
  %.not35 = icmp eq i32 %.02939, %9
  br i1 %.not35, label %.critedge, label %13

13:                                               ; preds = %11
  %14 = load ptr, ptr %4, align 8, !tbaa !12
  %15 = getelementptr inbounds nuw i8, ptr %14, i64 %12
  %16 = load i8, ptr %15, align 1, !tbaa !19
  %17 = icmp eq i8 %16, 10
  %18 = zext i1 %17 to i32
  %spec.select = add i32 %.02939, %18
  %19 = add i32 %.02840, 1
  %20 = zext i32 %19 to i64
  %21 = icmp ugt i64 %7, %20
  br i1 %21, label %11, label %.critedge, !llvm.loop !32

.critedge:                                        ; preds = %11, %13, %6
  %.028.lcssa = phi i32 [ 0, %6 ], [ %19, %13 ], [ %.02840, %11 ]
  %22 = zext i32 %.028.lcssa to i64
  %23 = icmp ugt i64 %7, %22
  br i1 %23, label %.lr.ph45, label %.critedge2

.lr.ph45:                                         ; preds = %.critedge
  %.not37 = icmp eq i32 %2, 0
  br i1 %.not37, label %.lr.ph45.split.us, label %.lr.ph45.split.preheader

.lr.ph45.split.preheader:                         ; preds = %.lr.ph45
  %24 = add i32 %2, -1
  %25 = zext i32 %24 to i64
  br label %.lr.ph45.split

.lr.ph45.split.us:                                ; preds = %.lr.ph45, %30
  %26 = phi i64 [ %35, %30 ], [ %22, %.lr.ph45 ]
  %.044.us = phi i32 [ %33, %30 ], [ 0, %.lr.ph45 ]
  %.143.us = phi i32 [ %34, %30 ], [ %.028.lcssa, %.lr.ph45 ]
  %27 = load ptr, ptr %4, align 8, !tbaa !12
  %28 = getelementptr inbounds nuw i8, ptr %27, i64 %26
  %29 = load i8, ptr %28, align 1, !tbaa !19
  %.not36.us = icmp eq i8 %29, 10
  br i1 %.not36.us, label %.critedge2, label %30

30:                                               ; preds = %.lr.ph45.split.us
  %31 = zext i32 %.044.us to i64
  %32 = getelementptr inbounds nuw i8, ptr %1, i64 %31
  store i8 %29, ptr %32, align 1, !tbaa !19
  %33 = add i32 %.044.us, 1
  %34 = add i32 %.143.us, 1
  %35 = zext i32 %34 to i64
  %36 = icmp ugt i64 %7, %35
  br i1 %36, label %.lr.ph45.split.us, label %.critedge2, !llvm.loop !33

.lr.ph45.split:                                   ; preds = %.lr.ph45.split.preheader, %41
  %indvars.iv = phi i64 [ 0, %.lr.ph45.split.preheader ], [ %indvars.iv.next, %41 ]
  %37 = phi i64 [ %22, %.lr.ph45.split.preheader ], [ %44, %41 ]
  %.143 = phi i32 [ %.028.lcssa, %.lr.ph45.split.preheader ], [ %43, %41 ]
  %38 = load ptr, ptr %4, align 8, !tbaa !12
  %39 = getelementptr inbounds nuw i8, ptr %38, i64 %37
  %40 = load i8, ptr %39, align 1, !tbaa !19
  %.not36 = icmp ne i8 %40, 10
  %.not38 = icmp samesign ult i64 %indvars.iv, %25
  %or.cond = select i1 %.not36, i1 %.not38, i1 false
  br i1 %or.cond, label %41, label %.critedge2.loopexit53

41:                                               ; preds = %.lr.ph45.split
  %42 = getelementptr inbounds nuw i8, ptr %1, i64 %indvars.iv
  store i8 %40, ptr %42, align 1, !tbaa !19
  %indvars.iv.next = add nuw nsw i64 %indvars.iv, 1
  %43 = add i32 %.143, 1
  %44 = zext i32 %43 to i64
  %45 = icmp ugt i64 %7, %44
  br i1 %45, label %.lr.ph45.split, label %.critedge2.loopexit53, !llvm.loop !33

.critedge2.loopexit53:                            ; preds = %41, %.lr.ph45.split
  %.0.lcssa.ph54.in = phi i64 [ %indvars.iv, %.lr.ph45.split ], [ %indvars.iv.next, %41 ]
  %.0.lcssa.ph54 = trunc i64 %.0.lcssa.ph54.in to i32
  br label %.critedge2

.critedge2:                                       ; preds = %.lr.ph45.split.us, %30, %.critedge2.loopexit53, %.critedge
  %.0.lcssa = phi i32 [ 0, %.critedge ], [ %.0.lcssa.ph54, %.critedge2.loopexit53 ], [ %33, %30 ], [ %.044.us, %.lr.ph45.split.us ]
  %46 = zext i32 %.0.lcssa to i64
  %47 = getelementptr inbounds nuw i8, ptr %1, i64 %46
  store i8 0, ptr %47, align 1, !tbaa !19
  br label %48

48:                                               ; preds = %.critedge2, %10
  ret void
}